; Function Attrs: mustprogress nofree norecurse nosync nounwind willreturn memory(argmem: write) uwtable
define void @_ZN7rocksdb17PosixRandomRWFile5FlushERKNS_9IOOptionsEPNS_14IODebugContextE(ptr noalias nocapture writeonly sret(%"class.rocksdb::IOStatus") align 8 %agg.result, ptr nocapture nonnull readnone align 8 %this, ptr nocapture nonnull readnone align 8 %0, ptr nocapture readnone %1) unnamed_addr #14 align 2 personality ptr @__gxx_personality_v0 {
entry:
  store i8 0, ptr %agg.result, align 8, !alias.scope !201
  %subcode_.i.i.i.i = getelementptr inbounds i8, ptr %agg.result, i64 1
  store i8 0, ptr %subcode_.i.i.i.i, align 1, !alias.scope !201
  %sev_.i.i.i.i = getelementptr inbounds i8, ptr %agg.result, i64 2
  %state_.i.i.i.i = getelementptr inbounds i8, ptr %agg.result, i64 8
  store ptr null, ptr %state_.i.i.i.i, align 8, !alias.scope !201
  store i32 0, ptr %sev_.i.i.i.i, align 2, !alias.scope !201
  ret void
}